
kernel.elf:     file format elf32-littlearm


Disassembly of section .text:

00008000 <_start>:
    8000:	e3a0d301 	mov	sp, #67108864	; 0x4000000
    8004:	ea00007a 	b	81f4 <_cstartup>

00008008 <_inf_loop>:
    8008:	eafffffe 	b	8008 <_inf_loop>

0000800c <kernel_main>:
    800c:	e92d4800 	push	{fp, lr}
    8010:	e28db004 	add	fp, sp, #4
    8014:	e24dd018 	sub	sp, sp, #24
    8018:	e50b0010 	str	r0, [fp, #-16]
    801c:	e50b1014 	str	r1, [fp, #-20]	; 0xffffffec
    8020:	e50b2018 	str	r2, [fp, #-24]	; 0xffffffe8
    8024:	e3083bb0 	movw	r3, #35760	; 0x8bb0
    8028:	e3403000 	movt	r3, #0
    802c:	e5933000 	ldr	r3, [r3]
    8030:	e2832010 	add	r2, r3, #16
    8034:	e3083bb0 	movw	r3, #35760	; 0x8bb0
    8038:	e3403000 	movt	r3, #0
    803c:	e5933000 	ldr	r3, [r3]
    8040:	e2833010 	add	r3, r3, #16
    8044:	e5933000 	ldr	r3, [r3]
    8048:	e3833602 	orr	r3, r3, #2097152	; 0x200000
    804c:	e5823000 	str	r3, [r2]
    8050:	e3a00a01 	mov	r0, #4096	; 0x1000
    8054:	fa000081 	blx	8260 <malloc>
    8058:	e1a03000 	mov	r3, r0
    805c:	e50b300c 	str	r3, [fp, #-12]
    8060:	e51b300c 	ldr	r3, [fp, #-12]
    8064:	e3530000 	cmp	r3, #0
    8068:	1a000006 	bne	8088 <kernel_main+0x7c>
    806c:	e3083bb0 	movw	r3, #35760	; 0x8bb0
    8070:	e3403000 	movt	r3, #0
    8074:	e5933000 	ldr	r3, [r3]
    8078:	e283302c 	add	r3, r3, #44	; 0x2c
    807c:	e3a02902 	mov	r2, #32768	; 0x8000
    8080:	e5832000 	str	r2, [r3]
    8084:	eafffff8 	b	806c <kernel_main+0x60>
    8088:	e3a03000 	mov	r3, #0
    808c:	e50b3008 	str	r3, [fp, #-8]
    8090:	ea000008 	b	80b8 <kernel_main+0xac>
    8094:	e51b3008 	ldr	r3, [fp, #-8]
    8098:	e1a03103 	lsl	r3, r3, #2
    809c:	e51b200c 	ldr	r2, [fp, #-12]
    80a0:	e0823003 	add	r3, r2, r3
    80a4:	e3a02000 	mov	r2, #0
    80a8:	e5832000 	str	r2, [r3]
    80ac:	e51b3008 	ldr	r3, [fp, #-8]
    80b0:	e2833001 	add	r3, r3, #1
    80b4:	e50b3008 	str	r3, [fp, #-8]
    80b8:	e51b3008 	ldr	r3, [fp, #-8]
    80bc:	e3530b01 	cmp	r3, #1024	; 0x400
    80c0:	bafffff3 	blt	8094 <kernel_main+0x88>
    80c4:	e3083bb0 	movw	r3, #35760	; 0x8bb0
    80c8:	e3403000 	movt	r3, #0
    80cc:	e5933000 	ldr	r3, [r3]
    80d0:	e283302c 	add	r3, r3, #44	; 0x2c
    80d4:	e3a02902 	mov	r2, #32768	; 0x8000
    80d8:	e5832000 	str	r2, [r3]
    80dc:	e51b300c 	ldr	r3, [fp, #-12]
    80e0:	e3a02000 	mov	r2, #0
    80e4:	e5832000 	str	r2, [r3]
    80e8:	ea000004 	b	8100 <kernel_main+0xf4>
    80ec:	e51b300c 	ldr	r3, [fp, #-12]
    80f0:	e5933000 	ldr	r3, [r3]
    80f4:	e2832001 	add	r2, r3, #1
    80f8:	e51b300c 	ldr	r3, [fp, #-12]
    80fc:	e5832000 	str	r2, [r3]
    8100:	e51b300c 	ldr	r3, [fp, #-12]
    8104:	e5932000 	ldr	r2, [r3]
    8108:	e30a311f 	movw	r3, #41247	; 0xa11f
    810c:	e3403007 	movt	r3, #7
    8110:	e1520003 	cmp	r2, r3
    8114:	9afffff4 	bls	80ec <kernel_main+0xe0>
    8118:	e3083bb0 	movw	r3, #35760	; 0x8bb0
    811c:	e3403000 	movt	r3, #0
    8120:	e5933000 	ldr	r3, [r3]
    8124:	e2833020 	add	r3, r3, #32
    8128:	e3a02902 	mov	r2, #32768	; 0x8000
    812c:	e5832000 	str	r2, [r3]
    8130:	e51b300c 	ldr	r3, [fp, #-12]
    8134:	e2833004 	add	r3, r3, #4
    8138:	e3a02000 	mov	r2, #0
    813c:	e5832000 	str	r2, [r3]
    8140:	ea000004 	b	8158 <kernel_main+0x14c>
    8144:	e51b300c 	ldr	r3, [fp, #-12]
    8148:	e2833004 	add	r3, r3, #4
    814c:	e5932000 	ldr	r2, [r3]
    8150:	e2822001 	add	r2, r2, #1
    8154:	e5832000 	str	r2, [r3]
    8158:	e51b300c 	ldr	r3, [fp, #-12]
    815c:	e2833004 	add	r3, r3, #4
    8160:	e5932000 	ldr	r2, [r3]
    8164:	e30a311f 	movw	r3, #41247	; 0xa11f
    8168:	e3403007 	movt	r3, #7
    816c:	e1520003 	cmp	r2, r3
    8170:	9afffff3 	bls	8144 <kernel_main+0x138>
    8174:	eaffffd2 	b	80c4 <kernel_main+0xb8>

00008178 <_sbrk>:
    8178:	e52db004 	push	{fp}		; (str fp, [sp, #-4]!)
    817c:	e28db000 	add	fp, sp, #0
    8180:	e24dd014 	sub	sp, sp, #20
    8184:	e50b0010 	str	r0, [fp, #-16]
    8188:	e30933f0 	movw	r3, #37872	; 0x93f0
    818c:	e3403000 	movt	r3, #0
    8190:	e5933000 	ldr	r3, [r3]
    8194:	e3530000 	cmp	r3, #0
    8198:	1a000004 	bne	81b0 <_sbrk+0x38>
    819c:	e30933f0 	movw	r3, #37872	; 0x93f0
    81a0:	e3403000 	movt	r3, #0
    81a4:	e3092450 	movw	r2, #37968	; 0x9450
    81a8:	e3402000 	movt	r2, #0
    81ac:	e5832000 	str	r2, [r3]
    81b0:	e30933f0 	movw	r3, #37872	; 0x93f0
    81b4:	e3403000 	movt	r3, #0
    81b8:	e5933000 	ldr	r3, [r3]
    81bc:	e50b3008 	str	r3, [fp, #-8]
    81c0:	e30933f0 	movw	r3, #37872	; 0x93f0
    81c4:	e3403000 	movt	r3, #0
    81c8:	e5932000 	ldr	r2, [r3]
    81cc:	e51b3010 	ldr	r3, [fp, #-16]
    81d0:	e0822003 	add	r2, r2, r3
    81d4:	e30933f0 	movw	r3, #37872	; 0x93f0
    81d8:	e3403000 	movt	r3, #0
    81dc:	e5832000 	str	r2, [r3]
    81e0:	e51b3008 	ldr	r3, [fp, #-8]
    81e4:	e1a00003 	mov	r0, r3
    81e8:	e28bd000 	add	sp, fp, #0
    81ec:	e49db004 	pop	{fp}		; (ldr fp, [sp], #4)
    81f0:	e12fff1e 	bx	lr

000081f4 <_cstartup>:
    81f4:	e92d4800 	push	{fp, lr}
    81f8:	e28db004 	add	fp, sp, #4
    81fc:	e24dd018 	sub	sp, sp, #24
    8200:	e50b0010 	str	r0, [fp, #-16]
    8204:	e50b1014 	str	r1, [fp, #-20]	; 0xffffffec
    8208:	e50b2018 	str	r2, [fp, #-24]	; 0xffffffe8
    820c:	e30933f0 	movw	r3, #37872	; 0x93f0
    8210:	e3403000 	movt	r3, #0
    8214:	e50b3008 	str	r3, [fp, #-8]
    8218:	e3093450 	movw	r3, #37968	; 0x9450
    821c:	e3403000 	movt	r3, #0
    8220:	e50b300c 	str	r3, [fp, #-12]
    8224:	ea000004 	b	823c <_cstartup+0x48>
    8228:	e51b3008 	ldr	r3, [fp, #-8]
    822c:	e2832004 	add	r2, r3, #4
    8230:	e50b2008 	str	r2, [fp, #-8]
    8234:	e3a02000 	mov	r2, #0
    8238:	e5832000 	str	r2, [r3]
    823c:	e51b2008 	ldr	r2, [fp, #-8]
    8240:	e51b300c 	ldr	r3, [fp, #-12]
    8244:	e1520003 	cmp	r2, r3
    8248:	3afffff6 	bcc	8228 <_cstartup+0x34>
    824c:	e51b2018 	ldr	r2, [fp, #-24]	; 0xffffffe8
    8250:	e51b1014 	ldr	r1, [fp, #-20]	; 0xffffffec
    8254:	e51b0010 	ldr	r0, [fp, #-16]
    8258:	ebffff6b 	bl	800c <kernel_main>
    825c:	eafffffe 	b	825c <_cstartup+0x68>

00008260 <malloc>:
    8260:	f648 73c4 	movw	r3, #36804	; 0x8fc4
    8264:	f2c0 0300 	movt	r3, #0
    8268:	4601      	mov	r1, r0
    826a:	6818      	ldr	r0, [r3, #0]
    826c:	f000 b808 	b.w	8280 <_malloc_r>

00008270 <free>:
    8270:	f648 73c4 	movw	r3, #36804	; 0x8fc4
    8274:	f2c0 0300 	movt	r3, #0
    8278:	4601      	mov	r1, r0
    827a:	6818      	ldr	r0, [r3, #0]
    827c:	f000 bb3c 	b.w	88f8 <_free_r>

00008280 <_malloc_r>:
    8280:	e92d 4ff0 	stmdb	sp!, {r4, r5, r6, r7, r8, r9, sl, fp, lr}
    8284:	f101 050b 	add.w	r5, r1, #11
    8288:	2d16      	cmp	r5, #22
    828a:	b083      	sub	sp, #12
    828c:	4606      	mov	r6, r0
    828e:	f240 80a7 	bls.w	83e0 <_malloc_r+0x160>
    8292:	f025 0507 	bic.w	r5, r5, #7
    8296:	42a9      	cmp	r1, r5
    8298:	bf94      	ite	ls
    829a:	2100      	movls	r1, #0
    829c:	2101      	movhi	r1, #1
    829e:	ea51 73d5 	orrs.w	r3, r1, r5, lsr #31
    82a2:	f040 80c4 	bne.w	842e <_malloc_r+0x1ae>
    82a6:	f000 fab1 	bl	880c <__malloc_lock>
    82aa:	f5b5 7ffc 	cmp.w	r5, #504	; 0x1f8
    82ae:	f0c0 82a7 	bcc.w	8800 <_malloc_r+0x580>
    82b2:	0a6b      	lsrs	r3, r5, #9
    82b4:	f000 80c2 	beq.w	843c <_malloc_r+0x1bc>
    82b8:	2b04      	cmp	r3, #4
    82ba:	f200 8141 	bhi.w	8540 <_malloc_r+0x2c0>
    82be:	09ab      	lsrs	r3, r5, #6
    82c0:	f103 0439 	add.w	r4, r3, #57	; 0x39
    82c4:	f103 0e38 	add.w	lr, r3, #56	; 0x38
    82c8:	00e3      	lsls	r3, r4, #3
    82ca:	f648 37b4 	movw	r7, #35764	; 0x8bb4
    82ce:	f2c0 0700 	movt	r7, #0
    82d2:	443b      	add	r3, r7
    82d4:	f1a3 0008 	sub.w	r0, r3, #8
    82d8:	685b      	ldr	r3, [r3, #4]
    82da:	4298      	cmp	r0, r3
    82dc:	d106      	bne.n	82ec <_malloc_r+0x6c>
    82de:	e00c      	b.n	82fa <_malloc_r+0x7a>
    82e0:	2900      	cmp	r1, #0
    82e2:	f280 80b1 	bge.w	8448 <_malloc_r+0x1c8>
    82e6:	68db      	ldr	r3, [r3, #12]
    82e8:	4298      	cmp	r0, r3
    82ea:	d006      	beq.n	82fa <_malloc_r+0x7a>
    82ec:	685a      	ldr	r2, [r3, #4]
    82ee:	f022 0203 	bic.w	r2, r2, #3
    82f2:	1b51      	subs	r1, r2, r5
    82f4:	290f      	cmp	r1, #15
    82f6:	ddf3      	ble.n	82e0 <_malloc_r+0x60>
    82f8:	4674      	mov	r4, lr
    82fa:	f8d7 c010 	ldr.w	ip, [r7, #16]
    82fe:	f8df e508 	ldr.w	lr, [pc, #1288]	; 8808 <_malloc_r+0x588>
    8302:	45f4      	cmp	ip, lr
    8304:	bf08      	it	eq
    8306:	687b      	ldreq	r3, [r7, #4]
    8308:	d027      	beq.n	835a <_malloc_r+0xda>
    830a:	f8dc 3004 	ldr.w	r3, [ip, #4]
    830e:	f023 0303 	bic.w	r3, r3, #3
    8312:	1b5a      	subs	r2, r3, r5
    8314:	2a0f      	cmp	r2, #15
    8316:	f300 8143 	bgt.w	85a0 <_malloc_r+0x320>
    831a:	2a00      	cmp	r2, #0
    831c:	f8c7 e014 	str.w	lr, [r7, #20]
    8320:	f8c7 e010 	str.w	lr, [r7, #16]
    8324:	f280 80a2 	bge.w	846c <_malloc_r+0x1ec>
    8328:	f5b3 7f00 	cmp.w	r3, #512	; 0x200
    832c:	f080 8114 	bcs.w	8558 <_malloc_r+0x2d8>
    8330:	08d9      	lsrs	r1, r3, #3
    8332:	2301      	movs	r3, #1
    8334:	18c8      	adds	r0, r1, r3
    8336:	687a      	ldr	r2, [r7, #4]
    8338:	1089      	asrs	r1, r1, #2
    833a:	408b      	lsls	r3, r1
    833c:	f857 1030 	ldr.w	r1, [r7, r0, lsl #3]
    8340:	4313      	orrs	r3, r2
    8342:	eb07 02c0 	add.w	r2, r7, r0, lsl #3
    8346:	607b      	str	r3, [r7, #4]
    8348:	3a08      	subs	r2, #8
    834a:	f8cc 1008 	str.w	r1, [ip, #8]
    834e:	f8cc 200c 	str.w	r2, [ip, #12]
    8352:	f847 c030 	str.w	ip, [r7, r0, lsl #3]
    8356:	f8c1 c00c 	str.w	ip, [r1, #12]
    835a:	10a2      	asrs	r2, r4, #2
    835c:	2001      	movs	r0, #1
    835e:	4090      	lsls	r0, r2
    8360:	4298      	cmp	r0, r3
    8362:	f200 8091 	bhi.w	8488 <_malloc_r+0x208>
    8366:	4218      	tst	r0, r3
    8368:	d105      	bne.n	8376 <_malloc_r+0xf6>
    836a:	f024 0403 	bic.w	r4, r4, #3
    836e:	0040      	lsls	r0, r0, #1
    8370:	3404      	adds	r4, #4
    8372:	4218      	tst	r0, r3
    8374:	d0fb      	beq.n	836e <_malloc_r+0xee>
    8376:	eb07 09c4 	add.w	r9, r7, r4, lsl #3
    837a:	46a0      	mov	r8, r4
    837c:	46cc      	mov	ip, r9
    837e:	f8dc 300c 	ldr.w	r3, [ip, #12]
    8382:	459c      	cmp	ip, r3
    8384:	d107      	bne.n	8396 <_malloc_r+0x116>
    8386:	e122      	b.n	85ce <_malloc_r+0x34e>
    8388:	2a00      	cmp	r2, #0
    838a:	f280 8130 	bge.w	85ee <_malloc_r+0x36e>
    838e:	68db      	ldr	r3, [r3, #12]
    8390:	459c      	cmp	ip, r3
    8392:	f000 811c 	beq.w	85ce <_malloc_r+0x34e>
    8396:	6859      	ldr	r1, [r3, #4]
    8398:	f021 0103 	bic.w	r1, r1, #3
    839c:	1b4a      	subs	r2, r1, r5
    839e:	2a0f      	cmp	r2, #15
    83a0:	ddf2      	ble.n	8388 <_malloc_r+0x108>
    83a2:	68dc      	ldr	r4, [r3, #12]
    83a4:	eb03 0c05 	add.w	ip, r3, r5
    83a8:	f8d3 8008 	ldr.w	r8, [r3, #8]
    83ac:	f045 0501 	orr.w	r5, r5, #1
    83b0:	4630      	mov	r0, r6
    83b2:	605d      	str	r5, [r3, #4]
    83b4:	f042 0501 	orr.w	r5, r2, #1
    83b8:	f8c8 400c 	str.w	r4, [r8, #12]
    83bc:	f8c4 8008 	str.w	r8, [r4, #8]
    83c0:	f103 0408 	add.w	r4, r3, #8
    83c4:	f8c7 c014 	str.w	ip, [r7, #20]
    83c8:	f8c7 c010 	str.w	ip, [r7, #16]
    83cc:	f8cc e00c 	str.w	lr, [ip, #12]
    83d0:	f8cc e008 	str.w	lr, [ip, #8]
    83d4:	f8cc 5004 	str.w	r5, [ip, #4]
    83d8:	505a      	str	r2, [r3, r1]
    83da:	f000 fa1d 	bl	8818 <__malloc_unlock>
    83de:	e022      	b.n	8426 <_malloc_r+0x1a6>
    83e0:	2910      	cmp	r1, #16
    83e2:	d824      	bhi.n	842e <_malloc_r+0x1ae>
    83e4:	f000 fa12 	bl	880c <__malloc_lock>
    83e8:	2510      	movs	r5, #16
    83ea:	2218      	movs	r2, #24
    83ec:	2402      	movs	r4, #2
    83ee:	f648 37b4 	movw	r7, #35764	; 0x8bb4
    83f2:	f2c0 0700 	movt	r7, #0
    83f6:	443a      	add	r2, r7
    83f8:	f1a2 0108 	sub.w	r1, r2, #8
    83fc:	6853      	ldr	r3, [r2, #4]
    83fe:	428b      	cmp	r3, r1
    8400:	f000 80ee 	beq.w	85e0 <_malloc_r+0x360>
    8404:	685a      	ldr	r2, [r3, #4]
    8406:	f103 0408 	add.w	r4, r3, #8
    840a:	68d9      	ldr	r1, [r3, #12]
    840c:	4630      	mov	r0, r6
    840e:	f022 0203 	bic.w	r2, r2, #3
    8412:	689d      	ldr	r5, [r3, #8]
    8414:	4413      	add	r3, r2
    8416:	685a      	ldr	r2, [r3, #4]
    8418:	60e9      	str	r1, [r5, #12]
    841a:	f042 0201 	orr.w	r2, r2, #1
    841e:	608d      	str	r5, [r1, #8]
    8420:	605a      	str	r2, [r3, #4]
    8422:	f000 f9f9 	bl	8818 <__malloc_unlock>
    8426:	4620      	mov	r0, r4
    8428:	b003      	add	sp, #12
    842a:	e8bd 8ff0 	ldmia.w	sp!, {r4, r5, r6, r7, r8, r9, sl, fp, pc}
    842e:	2400      	movs	r4, #0
    8430:	230c      	movs	r3, #12
    8432:	4620      	mov	r0, r4
    8434:	6033      	str	r3, [r6, #0]
    8436:	b003      	add	sp, #12
    8438:	e8bd 8ff0 	ldmia.w	sp!, {r4, r5, r6, r7, r8, r9, sl, fp, pc}
    843c:	f44f 7300 	mov.w	r3, #512	; 0x200
    8440:	2440      	movs	r4, #64	; 0x40
    8442:	f04f 0e3f 	mov.w	lr, #63	; 0x3f
    8446:	e740      	b.n	82ca <_malloc_r+0x4a>
    8448:	441a      	add	r2, r3
    844a:	68dd      	ldr	r5, [r3, #12]
    844c:	689f      	ldr	r7, [r3, #8]
    844e:	4630      	mov	r0, r6
    8450:	6851      	ldr	r1, [r2, #4]
    8452:	f103 0408 	add.w	r4, r3, #8
    8456:	60fd      	str	r5, [r7, #12]
    8458:	f041 0101 	orr.w	r1, r1, #1
    845c:	60af      	str	r7, [r5, #8]
    845e:	6051      	str	r1, [r2, #4]
    8460:	f000 f9da 	bl	8818 <__malloc_unlock>
    8464:	4620      	mov	r0, r4
    8466:	b003      	add	sp, #12
    8468:	e8bd 8ff0 	ldmia.w	sp!, {r4, r5, r6, r7, r8, r9, sl, fp, pc}
    846c:	4463      	add	r3, ip
    846e:	4630      	mov	r0, r6
    8470:	f10c 0408 	add.w	r4, ip, #8
    8474:	685a      	ldr	r2, [r3, #4]
    8476:	f042 0201 	orr.w	r2, r2, #1
    847a:	605a      	str	r2, [r3, #4]
    847c:	f000 f9cc 	bl	8818 <__malloc_unlock>
    8480:	4620      	mov	r0, r4
    8482:	b003      	add	sp, #12
    8484:	e8bd 8ff0 	ldmia.w	sp!, {r4, r5, r6, r7, r8, r9, sl, fp, pc}
    8488:	68bc      	ldr	r4, [r7, #8]
    848a:	6863      	ldr	r3, [r4, #4]
    848c:	f023 0903 	bic.w	r9, r3, #3
    8490:	eba9 0205 	sub.w	r2, r9, r5
    8494:	2a0f      	cmp	r2, #15
    8496:	bfcc      	ite	gt
    8498:	2300      	movgt	r3, #0
    849a:	2301      	movle	r3, #1
    849c:	45a9      	cmp	r9, r5
    849e:	bf38      	it	cc
    84a0:	f043 0301 	orrcc.w	r3, r3, #1
    84a4:	2b00      	cmp	r3, #0
    84a6:	d03b      	beq.n	8520 <_malloc_r+0x2a0>
    84a8:	f249 4324 	movw	r3, #37924	; 0x9424
    84ac:	f648 7abc 	movw	sl, #36796	; 0x8fbc
    84b0:	f2c0 0300 	movt	r3, #0
    84b4:	f2c0 0a00 	movt	sl, #0
    84b8:	4630      	mov	r0, r6
    84ba:	681a      	ldr	r2, [r3, #0]
    84bc:	f8da 3000 	ldr.w	r3, [sl]
    84c0:	eb05 0802 	add.w	r8, r5, r2
    84c4:	3301      	adds	r3, #1
    84c6:	bf17      	itett	ne
    84c8:	f508 5880 	addne.w	r8, r8, #4096	; 0x1000
    84cc:	f108 0810 	addeq.w	r8, r8, #16
    84d0:	f108 080f 	addne.w	r8, r8, #15
    84d4:	f428 687f 	bicne.w	r8, r8, #4080	; 0xff0
    84d8:	bf18      	it	ne
    84da:	f028 080f 	bicne.w	r8, r8, #15
    84de:	4641      	mov	r1, r8
    84e0:	f000 f9a0 	bl	8824 <_sbrk_r>
    84e4:	1c41      	adds	r1, r0, #1
    84e6:	4602      	mov	r2, r0
    84e8:	d006      	beq.n	84f8 <_malloc_r+0x278>
    84ea:	eb04 0009 	add.w	r0, r4, r9
    84ee:	42bc      	cmp	r4, r7
    84f0:	bf18      	it	ne
    84f2:	4290      	cmpne	r0, r2
    84f4:	f240 80b9 	bls.w	866a <_malloc_r+0x3ea>
    84f8:	68bc      	ldr	r4, [r7, #8]
    84fa:	6863      	ldr	r3, [r4, #4]
    84fc:	f023 0303 	bic.w	r3, r3, #3
    8500:	429d      	cmp	r5, r3
    8502:	eba3 0205 	sub.w	r2, r3, r5
    8506:	bf94      	ite	ls
    8508:	2300      	movls	r3, #0
    850a:	2301      	movhi	r3, #1
    850c:	2a0f      	cmp	r2, #15
    850e:	bfd8      	it	le
    8510:	f043 0301 	orrle.w	r3, r3, #1
    8514:	b123      	cbz	r3, 8520 <_malloc_r+0x2a0>
    8516:	4630      	mov	r0, r6
    8518:	2400      	movs	r4, #0
    851a:	f000 f97d 	bl	8818 <__malloc_unlock>
    851e:	e782      	b.n	8426 <_malloc_r+0x1a6>
    8520:	1963      	adds	r3, r4, r5
    8522:	f042 0201 	orr.w	r2, r2, #1
    8526:	4630      	mov	r0, r6
    8528:	f045 0501 	orr.w	r5, r5, #1
    852c:	6065      	str	r5, [r4, #4]
    852e:	3408      	adds	r4, #8
    8530:	60bb      	str	r3, [r7, #8]
    8532:	605a      	str	r2, [r3, #4]
    8534:	f000 f970 	bl	8818 <__malloc_unlock>
    8538:	4620      	mov	r0, r4
    853a:	b003      	add	sp, #12
    853c:	e8bd 8ff0 	ldmia.w	sp!, {r4, r5, r6, r7, r8, r9, sl, fp, pc}
    8540:	2b14      	cmp	r3, #20
    8542:	d963      	bls.n	860c <_malloc_r+0x38c>
    8544:	2b54      	cmp	r3, #84	; 0x54
    8546:	f200 8102 	bhi.w	874e <_malloc_r+0x4ce>
    854a:	0b2b      	lsrs	r3, r5, #12
    854c:	f103 046f 	add.w	r4, r3, #111	; 0x6f
    8550:	f103 0e6e 	add.w	lr, r3, #110	; 0x6e
    8554:	00e3      	lsls	r3, r4, #3
    8556:	e6b8      	b.n	82ca <_malloc_r+0x4a>
    8558:	0a59      	lsrs	r1, r3, #9
    855a:	2904      	cmp	r1, #4
    855c:	d95c      	bls.n	8618 <_malloc_r+0x398>
    855e:	2914      	cmp	r1, #20
    8560:	f200 8113 	bhi.w	878a <_malloc_r+0x50a>
    8564:	f101 025c 	add.w	r2, r1, #92	; 0x5c
    8568:	315b      	adds	r1, #91	; 0x5b
    856a:	00d2      	lsls	r2, r2, #3
    856c:	18b8      	adds	r0, r7, r2
    856e:	58ba      	ldr	r2, [r7, r2]
    8570:	3808      	subs	r0, #8
    8572:	4290      	cmp	r0, r2
    8574:	f000 80f5 	beq.w	8762 <_malloc_r+0x4e2>
    8578:	6851      	ldr	r1, [r2, #4]
    857a:	f021 0103 	bic.w	r1, r1, #3
    857e:	428b      	cmp	r3, r1
    8580:	f080 80e3 	bcs.w	874a <_malloc_r+0x4ca>
    8584:	6892      	ldr	r2, [r2, #8]
    8586:	4290      	cmp	r0, r2
    8588:	d1f6      	bne.n	8578 <_malloc_r+0x2f8>
    858a:	68c2      	ldr	r2, [r0, #12]
    858c:	687b      	ldr	r3, [r7, #4]
    858e:	f8cc 200c 	str.w	r2, [ip, #12]
    8592:	f8cc 0008 	str.w	r0, [ip, #8]
    8596:	f8c2 c008 	str.w	ip, [r2, #8]
    859a:	f8c0 c00c 	str.w	ip, [r0, #12]
    859e:	e6dc      	b.n	835a <_malloc_r+0xda>
    85a0:	eb0c 0105 	add.w	r1, ip, r5
    85a4:	4630      	mov	r0, r6
    85a6:	f045 0501 	orr.w	r5, r5, #1
    85aa:	f8cc 5004 	str.w	r5, [ip, #4]
    85ae:	6179      	str	r1, [r7, #20]
    85b0:	f042 0501 	orr.w	r5, r2, #1
    85b4:	6139      	str	r1, [r7, #16]
    85b6:	f10c 0408 	add.w	r4, ip, #8
    85ba:	f8c1 e00c 	str.w	lr, [r1, #12]
    85be:	f8c1 e008 	str.w	lr, [r1, #8]
    85c2:	604d      	str	r5, [r1, #4]
    85c4:	f84c 2003 	str.w	r2, [ip, r3]
    85c8:	f000 f926 	bl	8818 <__malloc_unlock>
    85cc:	e72b      	b.n	8426 <_malloc_r+0x1a6>
    85ce:	f108 0801 	add.w	r8, r8, #1
    85d2:	f10c 0c08 	add.w	ip, ip, #8
    85d6:	f018 0f03 	tst.w	r8, #3
    85da:	f47f aed0 	bne.w	837e <_malloc_r+0xfe>
    85de:	e026      	b.n	862e <_malloc_r+0x3ae>
    85e0:	68d3      	ldr	r3, [r2, #12]
    85e2:	429a      	cmp	r2, r3
    85e4:	bf08      	it	eq
    85e6:	3402      	addeq	r4, #2
    85e8:	f43f ae87 	beq.w	82fa <_malloc_r+0x7a>
    85ec:	e70a      	b.n	8404 <_malloc_r+0x184>
    85ee:	4419      	add	r1, r3
    85f0:	461c      	mov	r4, r3
    85f2:	68da      	ldr	r2, [r3, #12]
    85f4:	4630      	mov	r0, r6
    85f6:	f854 5f08 	ldr.w	r5, [r4, #8]!
    85fa:	684b      	ldr	r3, [r1, #4]
    85fc:	f043 0301 	orr.w	r3, r3, #1
    8600:	604b      	str	r3, [r1, #4]
    8602:	60ea      	str	r2, [r5, #12]
    8604:	6095      	str	r5, [r2, #8]
    8606:	f000 f907 	bl	8818 <__malloc_unlock>
    860a:	e70c      	b.n	8426 <_malloc_r+0x1a6>
    860c:	f103 045c 	add.w	r4, r3, #92	; 0x5c
    8610:	f103 0e5b 	add.w	lr, r3, #91	; 0x5b
    8614:	00e3      	lsls	r3, r4, #3
    8616:	e658      	b.n	82ca <_malloc_r+0x4a>
    8618:	0999      	lsrs	r1, r3, #6
    861a:	f101 0239 	add.w	r2, r1, #57	; 0x39
    861e:	3138      	adds	r1, #56	; 0x38
    8620:	00d2      	lsls	r2, r2, #3
    8622:	e7a3      	b.n	856c <_malloc_r+0x2ec>
    8624:	f859 3908 	ldr.w	r3, [r9], #-8
    8628:	4599      	cmp	r9, r3
    862a:	f040 80e7 	bne.w	87fc <_malloc_r+0x57c>
    862e:	f014 0f03 	tst.w	r4, #3
    8632:	f104 34ff 	add.w	r4, r4, #4294967295
    8636:	d1f5      	bne.n	8624 <_malloc_r+0x3a4>
    8638:	687b      	ldr	r3, [r7, #4]
    863a:	ea23 0300 	bic.w	r3, r3, r0
    863e:	607b      	str	r3, [r7, #4]
    8640:	0040      	lsls	r0, r0, #1
    8642:	bf14      	ite	ne
    8644:	2201      	movne	r2, #1
    8646:	2200      	moveq	r2, #0
    8648:	4298      	cmp	r0, r3
    864a:	bf8c      	ite	hi
    864c:	2200      	movhi	r2, #0
    864e:	f002 0201 	andls.w	r2, r2, #1
    8652:	2a00      	cmp	r2, #0
    8654:	f43f af18 	beq.w	8488 <_malloc_r+0x208>
    8658:	4218      	tst	r0, r3
    865a:	4644      	mov	r4, r8
    865c:	f47f ae8b 	bne.w	8376 <_malloc_r+0xf6>
    8660:	0040      	lsls	r0, r0, #1
    8662:	3404      	adds	r4, #4
    8664:	4218      	tst	r0, r3
    8666:	d0fb      	beq.n	8660 <_malloc_r+0x3e0>
    8668:	e685      	b.n	8376 <_malloc_r+0xf6>
    866a:	f249 3bf4 	movw	fp, #37876	; 0x93f4
    866e:	f2c0 0b00 	movt	fp, #0
    8672:	4290      	cmp	r0, r2
    8674:	f8db 1000 	ldr.w	r1, [fp]
    8678:	4441      	add	r1, r8
    867a:	f8cb 1000 	str.w	r1, [fp]
    867e:	f000 8092 	beq.w	87a6 <_malloc_r+0x526>
    8682:	f8da 3000 	ldr.w	r3, [sl]
    8686:	3301      	adds	r3, #1
    8688:	bf0f      	iteee	eq
    868a:	f8ca 2000 	streq.w	r2, [sl]
    868e:	1a10      	subne	r0, r2, r0
    8690:	1809      	addne	r1, r1, r0
    8692:	f8cb 1000 	strne.w	r1, [fp]
    8696:	f012 0107 	ands.w	r1, r2, #7
    869a:	4630      	mov	r0, r6
    869c:	bf1f      	itttt	ne
    869e:	f1c1 0308 	rsbne	r3, r1, #8
    86a2:	f5c1 5180 	rsbne	r1, r1, #4096	; 0x1000
    86a6:	18d2      	addne	r2, r2, r3
    86a8:	3108      	addne	r1, #8
    86aa:	eb02 0308 	add.w	r3, r2, r8
    86ae:	bf08      	it	eq
    86b0:	f44f 5180 	moveq.w	r1, #4096	; 0x1000
    86b4:	f3c3 030b 	ubfx	r3, r3, #0, #12
    86b8:	9201      	str	r2, [sp, #4]
    86ba:	eba1 0803 	sub.w	r8, r1, r3
    86be:	4641      	mov	r1, r8
    86c0:	f000 f8b0 	bl	8824 <_sbrk_r>
    86c4:	9a01      	ldr	r2, [sp, #4]
    86c6:	f8db 1000 	ldr.w	r1, [fp]
    86ca:	60ba      	str	r2, [r7, #8]
    86cc:	1c43      	adds	r3, r0, #1
    86ce:	bf1b      	ittet	ne
    86d0:	1a83      	subne	r3, r0, r2
    86d2:	4443      	addne	r3, r8
    86d4:	2301      	moveq	r3, #1
    86d6:	f043 0301 	orrne.w	r3, r3, #1
    86da:	bf08      	it	eq
    86dc:	f04f 0800 	moveq.w	r8, #0
    86e0:	42bc      	cmp	r4, r7
    86e2:	4441      	add	r1, r8
    86e4:	6053      	str	r3, [r2, #4]
    86e6:	f8cb 1000 	str.w	r1, [fp]
    86ea:	d019      	beq.n	8720 <_malloc_r+0x4a0>
    86ec:	f1b9 0f0f 	cmp.w	r9, #15
    86f0:	bf9c      	itt	ls
    86f2:	2301      	movls	r3, #1
    86f4:	6053      	strls	r3, [r2, #4]
    86f6:	f67f af0e 	bls.w	8516 <_malloc_r+0x296>
    86fa:	f1a9 030c 	sub.w	r3, r9, #12
    86fe:	6862      	ldr	r2, [r4, #4]
    8700:	f023 0307 	bic.w	r3, r3, #7
    8704:	f04f 0e05 	mov.w	lr, #5
    8708:	18e0      	adds	r0, r4, r3
    870a:	2b0f      	cmp	r3, #15
    870c:	f002 0201 	and.w	r2, r2, #1
    8710:	ea42 0203 	orr.w	r2, r2, r3
    8714:	6062      	str	r2, [r4, #4]
    8716:	f8c0 e004 	str.w	lr, [r0, #4]
    871a:	f8c0 e008 	str.w	lr, [r0, #8]
    871e:	d84e      	bhi.n	87be <_malloc_r+0x53e>
    8720:	f249 431c 	movw	r3, #37916	; 0x941c
    8724:	f2c0 0300 	movt	r3, #0
    8728:	68bc      	ldr	r4, [r7, #8]
    872a:	681a      	ldr	r2, [r3, #0]
    872c:	4291      	cmp	r1, r2
    872e:	bf88      	it	hi
    8730:	6019      	strhi	r1, [r3, #0]
    8732:	f249 4320 	movw	r3, #37920	; 0x9420
    8736:	f2c0 0300 	movt	r3, #0
    873a:	681a      	ldr	r2, [r3, #0]
    873c:	4291      	cmp	r1, r2
    873e:	bf88      	it	hi
    8740:	6019      	strhi	r1, [r3, #0]
    8742:	6863      	ldr	r3, [r4, #4]
    8744:	f023 0303 	bic.w	r3, r3, #3
    8748:	e6da      	b.n	8500 <_malloc_r+0x280>
    874a:	4610      	mov	r0, r2
    874c:	e71d      	b.n	858a <_malloc_r+0x30a>
    874e:	f5b3 7faa 	cmp.w	r3, #340	; 0x154
    8752:	d80f      	bhi.n	8774 <_malloc_r+0x4f4>
    8754:	0beb      	lsrs	r3, r5, #15
    8756:	f103 0478 	add.w	r4, r3, #120	; 0x78
    875a:	f103 0e77 	add.w	lr, r3, #119	; 0x77
    875e:	00e3      	lsls	r3, r4, #3
    8760:	e5b3      	b.n	82ca <_malloc_r+0x4a>
    8762:	2201      	movs	r2, #1
    8764:	687b      	ldr	r3, [r7, #4]
    8766:	1089      	asrs	r1, r1, #2
    8768:	fa02 f101 	lsl.w	r1, r2, r1
    876c:	4602      	mov	r2, r0
    876e:	430b      	orrs	r3, r1
    8770:	607b      	str	r3, [r7, #4]
    8772:	e70c      	b.n	858e <_malloc_r+0x30e>
    8774:	f240 5254 	movw	r2, #1364	; 0x554
    8778:	4293      	cmp	r3, r2
    877a:	d80e      	bhi.n	879a <_malloc_r+0x51a>
    877c:	0cab      	lsrs	r3, r5, #18
    877e:	f103 047d 	add.w	r4, r3, #125	; 0x7d
    8782:	f103 0e7c 	add.w	lr, r3, #124	; 0x7c
    8786:	00e3      	lsls	r3, r4, #3
    8788:	e59f      	b.n	82ca <_malloc_r+0x4a>
    878a:	2954      	cmp	r1, #84	; 0x54
    878c:	d81f      	bhi.n	87ce <_malloc_r+0x54e>
    878e:	0b19      	lsrs	r1, r3, #12
    8790:	f101 026f 	add.w	r2, r1, #111	; 0x6f
    8794:	316e      	adds	r1, #110	; 0x6e
    8796:	00d2      	lsls	r2, r2, #3
    8798:	e6e8      	b.n	856c <_malloc_r+0x2ec>
    879a:	f44f 737e 	mov.w	r3, #1016	; 0x3f8
    879e:	247f      	movs	r4, #127	; 0x7f
    87a0:	f04f 0e7e 	mov.w	lr, #126	; 0x7e
    87a4:	e591      	b.n	82ca <_malloc_r+0x4a>
    87a6:	f3c0 030b 	ubfx	r3, r0, #0, #12
    87aa:	2b00      	cmp	r3, #0
    87ac:	f47f af69 	bne.w	8682 <_malloc_r+0x402>
    87b0:	68ba      	ldr	r2, [r7, #8]
    87b2:	eb09 0308 	add.w	r3, r9, r8
    87b6:	f043 0301 	orr.w	r3, r3, #1
    87ba:	6053      	str	r3, [r2, #4]
    87bc:	e7b0      	b.n	8720 <_malloc_r+0x4a0>
    87be:	f104 0108 	add.w	r1, r4, #8
    87c2:	4630      	mov	r0, r6
    87c4:	f000 f898 	bl	88f8 <_free_r>
    87c8:	f8db 1000 	ldr.w	r1, [fp]
    87cc:	e7a8      	b.n	8720 <_malloc_r+0x4a0>
    87ce:	f5b1 7faa 	cmp.w	r1, #340	; 0x154
    87d2:	d805      	bhi.n	87e0 <_malloc_r+0x560>
    87d4:	0bd9      	lsrs	r1, r3, #15
    87d6:	f101 0278 	add.w	r2, r1, #120	; 0x78
    87da:	3177      	adds	r1, #119	; 0x77
    87dc:	00d2      	lsls	r2, r2, #3
    87de:	e6c5      	b.n	856c <_malloc_r+0x2ec>
    87e0:	f240 5254 	movw	r2, #1364	; 0x554
    87e4:	4291      	cmp	r1, r2
    87e6:	bf9b      	ittet	ls
    87e8:	0c99      	lsrls	r1, r3, #18
    87ea:	f101 027d 	addls.w	r2, r1, #125	; 0x7d
    87ee:	f44f 727e 	movhi.w	r2, #1016	; 0x3f8
    87f2:	317c      	addls	r1, #124	; 0x7c
    87f4:	bf8c      	ite	hi
    87f6:	217e      	movhi	r1, #126	; 0x7e
    87f8:	00d2      	lslls	r2, r2, #3
    87fa:	e6b7      	b.n	856c <_malloc_r+0x2ec>
    87fc:	687b      	ldr	r3, [r7, #4]
    87fe:	e71f      	b.n	8640 <_malloc_r+0x3c0>
    8800:	08ec      	lsrs	r4, r5, #3
    8802:	f105 0208 	add.w	r2, r5, #8
    8806:	e5f2      	b.n	83ee <_malloc_r+0x16e>
    8808:	00008bbc 			; <UNDEFINED> instruction: 0x00008bbc

0000880c <__malloc_lock>:
    880c:	f249 4038 	movw	r0, #37944	; 0x9438
    8810:	f2c0 0000 	movt	r0, #0
    8814:	f000 b96a 	b.w	8aec <__retarget_lock_acquire_recursive>

00008818 <__malloc_unlock>:
    8818:	f249 4038 	movw	r0, #37944	; 0x9438
    881c:	f2c0 0000 	movt	r0, #0
    8820:	f000 b96c 	b.w	8afc <__retarget_lock_release_recursive>

00008824 <_sbrk_r>:
    8824:	b538      	push	{r3, r4, r5, lr}
    8826:	f249 444c 	movw	r4, #37964	; 0x944c
    882a:	f2c0 0400 	movt	r4, #0
    882e:	4605      	mov	r5, r0
    8830:	4608      	mov	r0, r1
    8832:	2300      	movs	r3, #0
    8834:	6023      	str	r3, [r4, #0]
    8836:	f7ff eca0 	blx	8178 <_sbrk>
    883a:	1c43      	adds	r3, r0, #1
    883c:	d000      	beq.n	8840 <_sbrk_r+0x1c>
    883e:	bd38      	pop	{r3, r4, r5, pc}
    8840:	6823      	ldr	r3, [r4, #0]
    8842:	2b00      	cmp	r3, #0
    8844:	d0fb      	beq.n	883e <_sbrk_r+0x1a>
    8846:	602b      	str	r3, [r5, #0]
    8848:	bd38      	pop	{r3, r4, r5, pc}
    884a:	bf00      	nop

0000884c <_malloc_trim_r>:
    884c:	b5f8      	push	{r3, r4, r5, r6, r7, lr}
    884e:	f648 37b4 	movw	r7, #35764	; 0x8bb4
    8852:	f2c0 0700 	movt	r7, #0
    8856:	460c      	mov	r4, r1
    8858:	4606      	mov	r6, r0
    885a:	f7ff ffd7 	bl	880c <__malloc_lock>
    885e:	68bb      	ldr	r3, [r7, #8]
    8860:	f5c4 617e 	rsb	r1, r4, #4064	; 0xfe0
    8864:	310f      	adds	r1, #15
    8866:	685d      	ldr	r5, [r3, #4]
    8868:	f025 0503 	bic.w	r5, r5, #3
    886c:	4429      	add	r1, r5
    886e:	f421 617f 	bic.w	r1, r1, #4080	; 0xff0
    8872:	f021 010f 	bic.w	r1, r1, #15
    8876:	f5a1 5480 	sub.w	r4, r1, #4096	; 0x1000
    887a:	f5b4 5f80 	cmp.w	r4, #4096	; 0x1000
    887e:	db07      	blt.n	8890 <_malloc_trim_r+0x44>
    8880:	2100      	movs	r1, #0
    8882:	4630      	mov	r0, r6
    8884:	f7ff ffce 	bl	8824 <_sbrk_r>
    8888:	68bb      	ldr	r3, [r7, #8]
    888a:	442b      	add	r3, r5
    888c:	4298      	cmp	r0, r3
    888e:	d004      	beq.n	889a <_malloc_trim_r+0x4e>
    8890:	4630      	mov	r0, r6
    8892:	f7ff ffc1 	bl	8818 <__malloc_unlock>
    8896:	2000      	movs	r0, #0
    8898:	bdf8      	pop	{r3, r4, r5, r6, r7, pc}
    889a:	4261      	negs	r1, r4
    889c:	4630      	mov	r0, r6
    889e:	f7ff ffc1 	bl	8824 <_sbrk_r>
    88a2:	3001      	adds	r0, #1
    88a4:	d010      	beq.n	88c8 <_malloc_trim_r+0x7c>
    88a6:	68ba      	ldr	r2, [r7, #8]
    88a8:	f249 33f4 	movw	r3, #37876	; 0x93f4
    88ac:	f2c0 0300 	movt	r3, #0
    88b0:	1b2d      	subs	r5, r5, r4
    88b2:	4630      	mov	r0, r6
    88b4:	f045 0501 	orr.w	r5, r5, #1
    88b8:	6819      	ldr	r1, [r3, #0]
    88ba:	6055      	str	r5, [r2, #4]
    88bc:	1b09      	subs	r1, r1, r4
    88be:	6019      	str	r1, [r3, #0]
    88c0:	f7ff ffaa 	bl	8818 <__malloc_unlock>
    88c4:	2001      	movs	r0, #1
    88c6:	bdf8      	pop	{r3, r4, r5, r6, r7, pc}
    88c8:	2100      	movs	r1, #0
    88ca:	4630      	mov	r0, r6
    88cc:	f7ff ffaa 	bl	8824 <_sbrk_r>
    88d0:	68ba      	ldr	r2, [r7, #8]
    88d2:	1a83      	subs	r3, r0, r2
    88d4:	2b0f      	cmp	r3, #15
    88d6:	dddb      	ble.n	8890 <_malloc_trim_r+0x44>
    88d8:	f648 74bc 	movw	r4, #36796	; 0x8fbc
    88dc:	f2c0 0400 	movt	r4, #0
    88e0:	f249 31f4 	movw	r1, #37876	; 0x93f4
    88e4:	f2c0 0100 	movt	r1, #0
    88e8:	6824      	ldr	r4, [r4, #0]
    88ea:	f043 0301 	orr.w	r3, r3, #1
    88ee:	6053      	str	r3, [r2, #4]
    88f0:	1b00      	subs	r0, r0, r4
    88f2:	6008      	str	r0, [r1, #0]
    88f4:	e7cc      	b.n	8890 <_malloc_trim_r+0x44>
    88f6:	bf00      	nop

000088f8 <_free_r>:
    88f8:	2900      	cmp	r1, #0
    88fa:	d049      	beq.n	8990 <_free_r+0x98>
    88fc:	e92d 41f0 	stmdb	sp!, {r4, r5, r6, r7, r8, lr}
    8900:	460d      	mov	r5, r1
    8902:	4680      	mov	r8, r0
    8904:	f7ff ff82 	bl	880c <__malloc_lock>
    8908:	f855 7c04 	ldr.w	r7, [r5, #-4]
    890c:	f648 31b4 	movw	r1, #35764	; 0x8bb4
    8910:	f2c0 0100 	movt	r1, #0
    8914:	f1a5 0408 	sub.w	r4, r5, #8
    8918:	f027 0301 	bic.w	r3, r7, #1
    891c:	18e2      	adds	r2, r4, r3
    891e:	688e      	ldr	r6, [r1, #8]
    8920:	6850      	ldr	r0, [r2, #4]
    8922:	42b2      	cmp	r2, r6
    8924:	f020 0003 	bic.w	r0, r0, #3
    8928:	d063      	beq.n	89f2 <_free_r+0xfa>
    892a:	07fe      	lsls	r6, r7, #31
    892c:	6050      	str	r0, [r2, #4]
    892e:	d40b      	bmi.n	8948 <_free_r+0x50>
    8930:	f855 5c08 	ldr.w	r5, [r5, #-8]
    8934:	f101 0708 	add.w	r7, r1, #8
    8938:	1b64      	subs	r4, r4, r5
    893a:	442b      	add	r3, r5
    893c:	68a5      	ldr	r5, [r4, #8]
    893e:	42bd      	cmp	r5, r7
    8940:	d078      	beq.n	8a34 <_free_r+0x13c>
    8942:	68e7      	ldr	r7, [r4, #12]
    8944:	60ef      	str	r7, [r5, #12]
    8946:	60bd      	str	r5, [r7, #8]
    8948:	1815      	adds	r5, r2, r0
    894a:	686d      	ldr	r5, [r5, #4]
    894c:	07ed      	lsls	r5, r5, #31
    894e:	bf42      	ittt	mi
    8950:	f043 0201 	orrmi.w	r2, r3, #1
    8954:	6062      	strmi	r2, [r4, #4]
    8956:	50e3      	strmi	r3, [r4, r3]
    8958:	d53b      	bpl.n	89d2 <_free_r+0xda>
    895a:	f5b3 7f00 	cmp.w	r3, #512	; 0x200
    895e:	d218      	bcs.n	8992 <_free_r+0x9a>
    8960:	08db      	lsrs	r3, r3, #3
    8962:	2201      	movs	r2, #1
    8964:	189d      	adds	r5, r3, r2
    8966:	6848      	ldr	r0, [r1, #4]
    8968:	109b      	asrs	r3, r3, #2
    896a:	f851 7035 	ldr.w	r7, [r1, r5, lsl #3]
    896e:	fa02 f303 	lsl.w	r3, r2, r3
    8972:	eb01 02c5 	add.w	r2, r1, r5, lsl #3
    8976:	4303      	orrs	r3, r0
    8978:	3a08      	subs	r2, #8
    897a:	604b      	str	r3, [r1, #4]
    897c:	60e2      	str	r2, [r4, #12]
    897e:	60a7      	str	r7, [r4, #8]
    8980:	f841 4035 	str.w	r4, [r1, r5, lsl #3]
    8984:	60fc      	str	r4, [r7, #12]
    8986:	4640      	mov	r0, r8
    8988:	e8bd 41f0 	ldmia.w	sp!, {r4, r5, r6, r7, r8, lr}
    898c:	f7ff bf44 	b.w	8818 <__malloc_unlock>
    8990:	4770      	bx	lr
    8992:	0a5a      	lsrs	r2, r3, #9
    8994:	2a04      	cmp	r2, #4
    8996:	d85b      	bhi.n	8a50 <_free_r+0x158>
    8998:	099a      	lsrs	r2, r3, #6
    899a:	f102 0039 	add.w	r0, r2, #57	; 0x39
    899e:	f102 0538 	add.w	r5, r2, #56	; 0x38
    89a2:	00c2      	lsls	r2, r0, #3
    89a4:	1888      	adds	r0, r1, r2
    89a6:	588a      	ldr	r2, [r1, r2]
    89a8:	3808      	subs	r0, #8
    89aa:	4290      	cmp	r0, r2
    89ac:	d058      	beq.n	8a60 <_free_r+0x168>
    89ae:	6851      	ldr	r1, [r2, #4]
    89b0:	f021 0103 	bic.w	r1, r1, #3
    89b4:	428b      	cmp	r3, r1
    89b6:	d23b      	bcs.n	8a30 <_free_r+0x138>
    89b8:	6892      	ldr	r2, [r2, #8]
    89ba:	4290      	cmp	r0, r2
    89bc:	d1f7      	bne.n	89ae <_free_r+0xb6>
    89be:	68c3      	ldr	r3, [r0, #12]
    89c0:	60a0      	str	r0, [r4, #8]
    89c2:	60e3      	str	r3, [r4, #12]
    89c4:	609c      	str	r4, [r3, #8]
    89c6:	60c4      	str	r4, [r0, #12]
    89c8:	4640      	mov	r0, r8
    89ca:	e8bd 41f0 	ldmia.w	sp!, {r4, r5, r6, r7, r8, lr}
    89ce:	f7ff bf23 	b.w	8818 <__malloc_unlock>
    89d2:	6895      	ldr	r5, [r2, #8]
    89d4:	4403      	add	r3, r0
    89d6:	483f      	ldr	r0, [pc, #252]	; (8ad4 <_free_r+0x1dc>)
    89d8:	4285      	cmp	r5, r0
    89da:	d04a      	beq.n	8a72 <_free_r+0x17a>
    89dc:	68d0      	ldr	r0, [r2, #12]
    89de:	f5b3 7f00 	cmp.w	r3, #512	; 0x200
    89e2:	f043 0201 	orr.w	r2, r3, #1
    89e6:	60e8      	str	r0, [r5, #12]
    89e8:	6085      	str	r5, [r0, #8]
    89ea:	6062      	str	r2, [r4, #4]
    89ec:	50e3      	str	r3, [r4, r3]
    89ee:	d2d0      	bcs.n	8992 <_free_r+0x9a>
    89f0:	e7b6      	b.n	8960 <_free_r+0x68>
    89f2:	07ff      	lsls	r7, r7, #31
    89f4:	4403      	add	r3, r0
    89f6:	d407      	bmi.n	8a08 <_free_r+0x110>
    89f8:	f855 2c08 	ldr.w	r2, [r5, #-8]
    89fc:	1aa4      	subs	r4, r4, r2
    89fe:	4413      	add	r3, r2
    8a00:	68a0      	ldr	r0, [r4, #8]
    8a02:	68e2      	ldr	r2, [r4, #12]
    8a04:	60c2      	str	r2, [r0, #12]
    8a06:	6090      	str	r0, [r2, #8]
    8a08:	f648 72c0 	movw	r2, #36800	; 0x8fc0
    8a0c:	f2c0 0200 	movt	r2, #0
    8a10:	f043 0001 	orr.w	r0, r3, #1
    8a14:	6060      	str	r0, [r4, #4]
    8a16:	6812      	ldr	r2, [r2, #0]
    8a18:	608c      	str	r4, [r1, #8]
    8a1a:	4293      	cmp	r3, r2
    8a1c:	d3b3      	bcc.n	8986 <_free_r+0x8e>
    8a1e:	f249 4324 	movw	r3, #37924	; 0x9424
    8a22:	f2c0 0300 	movt	r3, #0
    8a26:	4640      	mov	r0, r8
    8a28:	6819      	ldr	r1, [r3, #0]
    8a2a:	f7ff ff0f 	bl	884c <_malloc_trim_r>
    8a2e:	e7aa      	b.n	8986 <_free_r+0x8e>
    8a30:	4610      	mov	r0, r2
    8a32:	e7c4      	b.n	89be <_free_r+0xc6>
    8a34:	1811      	adds	r1, r2, r0
    8a36:	6849      	ldr	r1, [r1, #4]
    8a38:	07c9      	lsls	r1, r1, #31
    8a3a:	d445      	bmi.n	8ac8 <_free_r+0x1d0>
    8a3c:	6891      	ldr	r1, [r2, #8]
    8a3e:	4403      	add	r3, r0
    8a40:	68d2      	ldr	r2, [r2, #12]
    8a42:	f043 0001 	orr.w	r0, r3, #1
    8a46:	60ca      	str	r2, [r1, #12]
    8a48:	6091      	str	r1, [r2, #8]
    8a4a:	6060      	str	r0, [r4, #4]
    8a4c:	50e3      	str	r3, [r4, r3]
    8a4e:	e79a      	b.n	8986 <_free_r+0x8e>
    8a50:	2a14      	cmp	r2, #20
    8a52:	d817      	bhi.n	8a84 <_free_r+0x18c>
    8a54:	f102 005c 	add.w	r0, r2, #92	; 0x5c
    8a58:	f102 055b 	add.w	r5, r2, #91	; 0x5b
    8a5c:	00c2      	lsls	r2, r0, #3
    8a5e:	e7a1      	b.n	89a4 <_free_r+0xac>
    8a60:	10aa      	asrs	r2, r5, #2
    8a62:	2301      	movs	r3, #1
    8a64:	684d      	ldr	r5, [r1, #4]
    8a66:	fa03 f202 	lsl.w	r2, r3, r2
    8a6a:	4603      	mov	r3, r0
    8a6c:	432a      	orrs	r2, r5
    8a6e:	604a      	str	r2, [r1, #4]
    8a70:	e7a6      	b.n	89c0 <_free_r+0xc8>
    8a72:	614c      	str	r4, [r1, #20]
    8a74:	f043 0201 	orr.w	r2, r3, #1
    8a78:	610c      	str	r4, [r1, #16]
    8a7a:	60e5      	str	r5, [r4, #12]
    8a7c:	60a5      	str	r5, [r4, #8]
    8a7e:	6062      	str	r2, [r4, #4]
    8a80:	50e3      	str	r3, [r4, r3]
    8a82:	e780      	b.n	8986 <_free_r+0x8e>
    8a84:	2a54      	cmp	r2, #84	; 0x54
    8a86:	d806      	bhi.n	8a96 <_free_r+0x19e>
    8a88:	0b1a      	lsrs	r2, r3, #12
    8a8a:	f102 006f 	add.w	r0, r2, #111	; 0x6f
    8a8e:	f102 056e 	add.w	r5, r2, #110	; 0x6e
    8a92:	00c2      	lsls	r2, r0, #3
    8a94:	e786      	b.n	89a4 <_free_r+0xac>
    8a96:	f5b2 7faa 	cmp.w	r2, #340	; 0x154
    8a9a:	d806      	bhi.n	8aaa <_free_r+0x1b2>
    8a9c:	0bda      	lsrs	r2, r3, #15
    8a9e:	f102 0078 	add.w	r0, r2, #120	; 0x78
    8aa2:	f102 0577 	add.w	r5, r2, #119	; 0x77
    8aa6:	00c2      	lsls	r2, r0, #3
    8aa8:	e77c      	b.n	89a4 <_free_r+0xac>
    8aaa:	f240 5054 	movw	r0, #1364	; 0x554
    8aae:	4282      	cmp	r2, r0
    8ab0:	bf9d      	ittte	ls
    8ab2:	0c9a      	lsrls	r2, r3, #18
    8ab4:	f102 007d 	addls.w	r0, r2, #125	; 0x7d
    8ab8:	f102 057c 	addls.w	r5, r2, #124	; 0x7c
    8abc:	f44f 727e 	movhi.w	r2, #1016	; 0x3f8
    8ac0:	bf8c      	ite	hi
    8ac2:	257e      	movhi	r5, #126	; 0x7e
    8ac4:	00c2      	lslls	r2, r0, #3
    8ac6:	e76d      	b.n	89a4 <_free_r+0xac>
    8ac8:	f043 0101 	orr.w	r1, r3, #1
    8acc:	6061      	str	r1, [r4, #4]
    8ace:	6013      	str	r3, [r2, #0]
    8ad0:	e759      	b.n	8986 <_free_r+0x8e>
    8ad2:	bf00      	nop
    8ad4:	00008bbc 			; <UNDEFINED> instruction: 0x00008bbc

00008ad8 <__retarget_lock_init>:
    8ad8:	4770      	bx	lr
    8ada:	bf00      	nop

00008adc <__retarget_lock_init_recursive>:
    8adc:	4770      	bx	lr
    8ade:	bf00      	nop

00008ae0 <__retarget_lock_close>:
    8ae0:	4770      	bx	lr
    8ae2:	bf00      	nop

00008ae4 <__retarget_lock_close_recursive>:
    8ae4:	4770      	bx	lr
    8ae6:	bf00      	nop

00008ae8 <__retarget_lock_acquire>:
    8ae8:	4770      	bx	lr
    8aea:	bf00      	nop

00008aec <__retarget_lock_acquire_recursive>:
    8aec:	4770      	bx	lr
    8aee:	bf00      	nop

00008af0 <__retarget_lock_try_acquire>:
    8af0:	2001      	movs	r0, #1
    8af2:	4770      	bx	lr

00008af4 <__retarget_lock_try_acquire_recursive>:
    8af4:	2001      	movs	r0, #1
    8af6:	4770      	bx	lr

00008af8 <__retarget_lock_release>:
    8af8:	4770      	bx	lr
    8afa:	bf00      	nop

00008afc <__retarget_lock_release_recursive>:
    8afc:	4770      	bx	lr
    8afe:	bf00      	nop

00008b00 <cleanup_glue>:
    8b00:	b538      	push	{r3, r4, r5, lr}
    8b02:	460c      	mov	r4, r1
    8b04:	6809      	ldr	r1, [r1, #0]
    8b06:	4605      	mov	r5, r0
    8b08:	b109      	cbz	r1, 8b0e <cleanup_glue+0xe>
    8b0a:	f7ff fff9 	bl	8b00 <cleanup_glue>
    8b0e:	4621      	mov	r1, r4
    8b10:	4628      	mov	r0, r5
    8b12:	e8bd 4038 	ldmia.w	sp!, {r3, r4, r5, lr}
    8b16:	f7ff beef 	b.w	88f8 <_free_r>
    8b1a:	bf00      	nop

00008b1c <_reclaim_reent>:
    8b1c:	f648 73c4 	movw	r3, #36804	; 0x8fc4
    8b20:	f2c0 0300 	movt	r3, #0
    8b24:	681b      	ldr	r3, [r3, #0]
    8b26:	4283      	cmp	r3, r0
    8b28:	d03c      	beq.n	8ba4 <_reclaim_reent+0x88>
    8b2a:	6cc3      	ldr	r3, [r0, #76]	; 0x4c
    8b2c:	b570      	push	{r4, r5, r6, lr}
    8b2e:	4605      	mov	r5, r0
    8b30:	b18b      	cbz	r3, 8b56 <_reclaim_reent+0x3a>
    8b32:	2600      	movs	r6, #0
    8b34:	5999      	ldr	r1, [r3, r6]
    8b36:	b139      	cbz	r1, 8b48 <_reclaim_reent+0x2c>
    8b38:	680c      	ldr	r4, [r1, #0]
    8b3a:	4628      	mov	r0, r5
    8b3c:	f7ff fedc 	bl	88f8 <_free_r>
    8b40:	4621      	mov	r1, r4
    8b42:	2c00      	cmp	r4, #0
    8b44:	d1f8      	bne.n	8b38 <_reclaim_reent+0x1c>
    8b46:	6ceb      	ldr	r3, [r5, #76]	; 0x4c
    8b48:	3604      	adds	r6, #4
    8b4a:	2e80      	cmp	r6, #128	; 0x80
    8b4c:	d1f2      	bne.n	8b34 <_reclaim_reent+0x18>
    8b4e:	4619      	mov	r1, r3
    8b50:	4628      	mov	r0, r5
    8b52:	f7ff fed1 	bl	88f8 <_free_r>
    8b56:	6c29      	ldr	r1, [r5, #64]	; 0x40
    8b58:	b111      	cbz	r1, 8b60 <_reclaim_reent+0x44>
    8b5a:	4628      	mov	r0, r5
    8b5c:	f7ff fecc 	bl	88f8 <_free_r>
    8b60:	f8d5 1148 	ldr.w	r1, [r5, #328]	; 0x148
    8b64:	b151      	cbz	r1, 8b7c <_reclaim_reent+0x60>
    8b66:	f505 76a6 	add.w	r6, r5, #332	; 0x14c
    8b6a:	42b1      	cmp	r1, r6
    8b6c:	d006      	beq.n	8b7c <_reclaim_reent+0x60>
    8b6e:	680c      	ldr	r4, [r1, #0]
    8b70:	4628      	mov	r0, r5
    8b72:	f7ff fec1 	bl	88f8 <_free_r>
    8b76:	42a6      	cmp	r6, r4
    8b78:	4621      	mov	r1, r4
    8b7a:	d1f8      	bne.n	8b6e <_reclaim_reent+0x52>
    8b7c:	6d69      	ldr	r1, [r5, #84]	; 0x54
    8b7e:	b111      	cbz	r1, 8b86 <_reclaim_reent+0x6a>
    8b80:	4628      	mov	r0, r5
    8b82:	f7ff feb9 	bl	88f8 <_free_r>
    8b86:	6bab      	ldr	r3, [r5, #56]	; 0x38
    8b88:	b903      	cbnz	r3, 8b8c <_reclaim_reent+0x70>
    8b8a:	bd70      	pop	{r4, r5, r6, pc}
    8b8c:	6beb      	ldr	r3, [r5, #60]	; 0x3c
    8b8e:	4628      	mov	r0, r5
    8b90:	4798      	blx	r3
    8b92:	f8d5 12e0 	ldr.w	r1, [r5, #736]	; 0x2e0
    8b96:	2900      	cmp	r1, #0
    8b98:	d0f7      	beq.n	8b8a <_reclaim_reent+0x6e>
    8b9a:	4628      	mov	r0, r5
    8b9c:	e8bd 4070 	ldmia.w	sp!, {r4, r5, r6, lr}
    8ba0:	f7ff bfae 	b.w	8b00 <cleanup_glue>
    8ba4:	4770      	bx	lr
    8ba6:	bf00      	nop
